; Function Attrs: mustprogress nofree norecurse nosync nounwind willreturn memory(read, inaccessiblemem: none) uwtable
define noundef i32 @_ZNK10open_spiel9coin_game9CoinState18GetPlayerCoinCountEii(ptr nocapture noundef nonnull readonly align 8 dereferenceable(288) %0, i32 noundef %1, i32 noundef %2) local_unnamed_addr #7 align 2 {
  %4 = getelementptr inbounds nuw i8, ptr %0, i64 264
  %5 = getelementptr inbounds nuw i8, ptr %0, i64 64
  %6 = load ptr, ptr %5, align 8
  %7 = getelementptr inbounds nuw i8, ptr %6, i64 296
  %8 = load i32, ptr %7, align 8
  %9 = mul nsw i32 %8, %1
  %10 = add nsw i32 %9, %2
  %11 = sext i32 %10 to i64
  %12 = load ptr, ptr %4, align 8
  %13 = getelementptr inbounds i32, ptr %12, i64 %11
  %14 = load i32, ptr %13, align 4
  ret i32 %14
}